target datalayout = "e-m:e-p270:32:32-p271:32:32-p272:64:64-i64:64-i128:128-f80:128-n8:16:32:64-S128"
target triple = "x86_64-unknown-linux-gnu"

%"class.std::__cxx11::basic_string" = type { %"struct.std::__cxx11::basic_string<char>::_Alloc_hider", i64, %union.anon }
%"struct.std::__cxx11::basic_string<char>::_Alloc_hider" = type { ptr }
%union.anon = type { i64, [8 x i8] }

; Function Attrs: mustprogress nounwind uwtable
define linkonce_odr hidden noundef i32 @_ZN6Assimp14ASSIMP_stricmpEPKcS1_(ptr noundef %s1, ptr noundef %s2) #0 comdat {
entry:
  %s1.addr = alloca ptr, align 8
  %s2.addr = alloca ptr, align 8
  %c1 = alloca i8, align 1
  %c2 = alloca i8, align 1
  store ptr %s1, ptr %s1.addr, align 8
  store ptr %s2, ptr %s2.addr, align 8
  br label %do.body

do.body:                                          ; preds = %land.end, %entry
  %0 = load ptr, ptr %s1.addr, align 8
  %incdec.ptr = getelementptr inbounds i8, ptr %0, i32 1
  store ptr %incdec.ptr, ptr %s1.addr, align 8
  %1 = load i8, ptr %0, align 1
  %conv = zext i8 %1 to i32
  %call = call i32 @tolower(i32 noundef %conv) #18
  %conv1 = trunc i32 %call to i8
  store i8 %conv1, ptr %c1, align 1
  %2 = load ptr, ptr %s2.addr, align 8
  %incdec.ptr2 = getelementptr inbounds i8, ptr %2, i32 1
  store ptr %incdec.ptr2, ptr %s2.addr, align 8
  %3 = load i8, ptr %2, align 1
  %conv3 = zext i8 %3 to i32
  %call4 = call i32 @tolower(i32 noundef %conv3) #18
  %conv5 = trunc i32 %call4 to i8
  store i8 %conv5, ptr %c2, align 1
  br label %do.cond

do.cond:                                          ; preds = %do.body
  %4 = load i8, ptr %c1, align 1
  %tobool = icmp ne i8 %4, 0
  br i1 %tobool, label %land.rhs, label %land.end

land.rhs:                                         ; preds = %do.cond
  %5 = load i8, ptr %c1, align 1
  %conv6 = sext i8 %5 to i32
  %6 = load i8, ptr %c2, align 1
  %conv7 = sext i8 %6 to i32
  %cmp = icmp eq i32 %conv6, %conv7
  br label %land.end

land.end:                                         ; preds = %land.rhs, %do.cond
  %7 = phi i1 [ false, %do.cond ], [ %cmp, %land.rhs ]
  br i1 %7, label %do.body, label %do.end, !llvm.loop !35

do.end:                                           ; preds = %land.end
  %8 = load i8, ptr %c1, align 1
  %conv8 = sext i8 %8 to i32
  %9 = load i8, ptr %c2, align 1
  %conv9 = sext i8 %9 to i32
  %sub = sub nsw i32 %conv8, %conv9
  ret i32 %sub
}

; Function Attrs: mustprogress uwtable
define linkonce_odr hidden noundef i32 @_ZN6Assimp14ASSIMP_stricmpERKNSt7__cxx1112basic_stringIcSt11char_traitsIcESaIcEEES7_(ptr noundef nonnull align 8 dereferenceable(32) %a, ptr noundef nonnull align 8 dereferenceable(32) %b) #2 comdat {
entry:
  %a.addr = alloca ptr, align 8
  %b.addr = alloca ptr, align 8
  %i = alloca i32, align 4
  store ptr %a, ptr %a.addr, align 8
  store ptr %b, ptr %b.addr, align 8
  %0 = load ptr, ptr %b.addr, align 8
  %call = call noundef i64 @_ZNKSt7__cxx1112basic_stringIcSt11char_traitsIcESaIcEE6lengthEv(ptr noundef nonnull align 8 dereferenceable(32) %0) #5
  %conv = trunc i64 %call to i32
  %1 = load ptr, ptr %a.addr, align 8
  %call1 = call noundef i64 @_ZNKSt7__cxx1112basic_stringIcSt11char_traitsIcESaIcEE6lengthEv(ptr noundef nonnull align 8 dereferenceable(32) %1) #5
  %conv2 = trunc i64 %call1 to i32
  %sub = sub nsw i32 %conv, %conv2
  store i32 %sub, ptr %i, align 4
  %2 = load i32, ptr %i, align 4
  %tobool = icmp ne i32 %2, 0
  br i1 %tobool, label %cond.true, label %cond.false

cond.true:                                        ; preds = %entry
  %3 = load i32, ptr %i, align 4
  br label %cond.end

cond.false:                                       ; preds = %entry
  %4 = load ptr, ptr %a.addr, align 8
  %call3 = call noundef ptr @_ZNKSt7__cxx1112basic_stringIcSt11char_traitsIcESaIcEE5c_strEv(ptr noundef nonnull align 8 dereferenceable(32) %4) #5
  %5 = load ptr, ptr %b.addr, align 8
  %call4 = call noundef ptr @_ZNKSt7__cxx1112basic_stringIcSt11char_traitsIcESaIcEE5c_strEv(ptr noundef nonnull align 8 dereferenceable(32) %5) #5
  %call5 = call noundef i32 @_ZN6Assimp14ASSIMP_stricmpEPKcS1_(ptr noundef %call3, ptr noundef %call4)
  br label %cond.end

cond.end:                                         ; preds = %cond.false, %cond.true
  %cond = phi i32 [ %3, %cond.true ], [ %call5, %cond.false ]
  ret i32 %cond
}

; Function Attrs: mustprogress uwtable
define internal noundef zeroext i1 @_ZN6Assimp4OgreL8EndsWithERKNSt7__cxx1112basic_stringIcSt11char_traitsIcESaIcEEES8_b(ptr noundef nonnull align 8 dereferenceable(32) %s, ptr noundef nonnull align 8 dereferenceable(32) %suffix, i1 noundef zeroext %caseSensitive) #2 personality ptr @__gxx_personality_v0 {
entry:
  %retval = alloca i1, align 1
  %s.addr = alloca ptr, align 8
  %suffix.addr = alloca ptr, align 8
  %caseSensitive.addr = alloca i8, align 1
  %ref.tmp = alloca %"class.std::__cxx11::basic_string", align 8
  %ref.tmp7 = alloca %"class.std::__cxx11::basic_string", align 8
  %exn.slot = alloca ptr, align 8
  %ehselector.slot = alloca i32, align 4
  %len = alloca i64, align 8
  %sSuffix = alloca %"class.std::__cxx11::basic_string", align 8
  store ptr %s, ptr %s.addr, align 8
  store ptr %suffix, ptr %suffix.addr, align 8
  %frombool = zext i1 %caseSensitive to i8
  store i8 %frombool, ptr %caseSensitive.addr, align 1
  %0 = load ptr, ptr %s.addr, align 8
  %call = call noundef zeroext i1 @_ZNKSt7__cxx1112basic_stringIcSt11char_traitsIcESaIcEE5emptyEv(ptr noundef nonnull align 8 dereferenceable(32) %0) #5
  br i1 %call, label %if.then, label %lor.lhs.false

lor.lhs.false:                                    ; preds = %entry
  %1 = load ptr, ptr %suffix.addr, align 8
  %call1 = call noundef zeroext i1 @_ZNKSt7__cxx1112basic_stringIcSt11char_traitsIcESaIcEE5emptyEv(ptr noundef nonnull align 8 dereferenceable(32) %1) #5
  br i1 %call1, label %if.then, label %if.else

if.then:                                          ; preds = %lor.lhs.false, %entry
  store i1 false, ptr %retval, align 1
  br label %return

if.else:                                          ; preds = %lor.lhs.false
  %2 = load ptr, ptr %s.addr, align 8
  %call2 = call noundef i64 @_ZNKSt7__cxx1112basic_stringIcSt11char_traitsIcESaIcEE6lengthEv(ptr noundef nonnull align 8 dereferenceable(32) %2) #5
  %3 = load ptr, ptr %suffix.addr, align 8
  %call3 = call noundef i64 @_ZNKSt7__cxx1112basic_stringIcSt11char_traitsIcESaIcEE6lengthEv(ptr noundef nonnull align 8 dereferenceable(32) %3) #5
  %cmp = icmp ult i64 %call2, %call3
  br i1 %cmp, label %if.then4, label %if.end

if.then4:                                         ; preds = %if.else
  store i1 false, ptr %retval, align 1
  br label %return

if.end:                                           ; preds = %if.else
  br label %if.end5

if.end5:                                          ; preds = %if.end
  %4 = load i8, ptr %caseSensitive.addr, align 1
  %tobool = trunc i8 %4 to i1
  br i1 %tobool, label %if.end11, label %if.then6

if.then6:                                         ; preds = %if.end5
  %5 = load ptr, ptr %s.addr, align 8
  call void @_Z10ai_tolowerRKNSt7__cxx1112basic_stringIcSt11char_traitsIcESaIcEEE(ptr sret(%"class.std::__cxx11::basic_string") align 8 %ref.tmp, ptr noundef nonnull align 8 dereferenceable(32) %5)
  %6 = load ptr, ptr %suffix.addr, align 8
  invoke void @_Z10ai_tolowerRKNSt7__cxx1112basic_stringIcSt11char_traitsIcESaIcEEE(ptr sret(%"class.std::__cxx11::basic_string") align 8 %ref.tmp7, ptr noundef nonnull align 8 dereferenceable(32) %6)
          to label %invoke.cont unwind label %lpad

invoke.cont:                                      ; preds = %if.then6
  %call10 = invoke noundef zeroext i1 @_ZN6Assimp4OgreL8EndsWithERKNSt7__cxx1112basic_stringIcSt11char_traitsIcESaIcEEES8_b(ptr noundef nonnull align 8 dereferenceable(32) %ref.tmp, ptr noundef nonnull align 8 dereferenceable(32) %ref.tmp7, i1 noundef zeroext true)
          to label %invoke.cont9 unwind label %lpad8

invoke.cont9:                                     ; preds = %invoke.cont
  store i1 %call10, ptr %retval, align 1
  call void @_ZNSt7__cxx1112basic_stringIcSt11char_traitsIcESaIcEED1Ev(ptr noundef nonnull align 8 dereferenceable(32) %ref.tmp7) #5
  call void @_ZNSt7__cxx1112basic_stringIcSt11char_traitsIcESaIcEED1Ev(ptr noundef nonnull align 8 dereferenceable(32) %ref.tmp) #5
  br label %return

lpad:                                             ; preds = %if.then6
  %7 = landingpad { ptr, i32 }
          cleanup
  %8 = extractvalue { ptr, i32 } %7, 0
  store ptr %8, ptr %exn.slot, align 8
  %9 = extractvalue { ptr, i32 } %7, 1
  store i32 %9, ptr %ehselector.slot, align 4
  br label %ehcleanup

lpad8:                                            ; preds = %invoke.cont
  %10 = landingpad { ptr, i32 }
          cleanup
  %11 = extractvalue { ptr, i32 } %10, 0
  store ptr %11, ptr %exn.slot, align 8
  %12 = extractvalue { ptr, i32 } %10, 1
  store i32 %12, ptr %ehselector.slot, align 4
  call void @_ZNSt7__cxx1112basic_stringIcSt11char_traitsIcESaIcEED1Ev(ptr noundef nonnull align 8 dereferenceable(32) %ref.tmp7) #5
  br label %ehcleanup

ehcleanup:                                        ; preds = %lpad8, %lpad
  call void @_ZNSt7__cxx1112basic_stringIcSt11char_traitsIcESaIcEED1Ev(ptr noundef nonnull align 8 dereferenceable(32) %ref.tmp) #5
  br label %eh.resume

if.end11:                                         ; preds = %if.end5
  %13 = load ptr, ptr %suffix.addr, align 8
  %call12 = call noundef i64 @_ZNKSt7__cxx1112basic_stringIcSt11char_traitsIcESaIcEE6lengthEv(ptr noundef nonnull align 8 dereferenceable(32) %13) #5
  store i64 %call12, ptr %len, align 8
  %14 = load ptr, ptr %s.addr, align 8
  %15 = load ptr, ptr %s.addr, align 8
  %call13 = call noundef i64 @_ZNKSt7__cxx1112basic_stringIcSt11char_traitsIcESaIcEE6lengthEv(ptr noundef nonnull align 8 dereferenceable(32) %15) #5
  %16 = load i64, ptr %len, align 8
  %sub = sub i64 %call13, %16
  %17 = load i64, ptr %len, align 8
  call void @_ZNKSt7__cxx1112basic_stringIcSt11char_traitsIcESaIcEE6substrEmm(ptr sret(%"class.std::__cxx11::basic_string") align 8 %sSuffix, ptr noundef nonnull align 8 dereferenceable(32) %14, i64 noundef %sub, i64 noundef %17)
  %18 = load ptr, ptr %suffix.addr, align 8
  %call16 = invoke noundef i32 @_ZN6Assimp14ASSIMP_stricmpERKNSt7__cxx1112basic_stringIcSt11char_traitsIcESaIcEEES7_(ptr noundef nonnull align 8 dereferenceable(32) %sSuffix, ptr noundef nonnull align 8 dereferenceable(32) %18)
          to label %invoke.cont15 unwind label %lpad14

invoke.cont15:                                    ; preds = %if.end11
  %cmp17 = icmp eq i32 %call16, 0
  store i1 %cmp17, ptr %retval, align 1
  call void @_ZNSt7__cxx1112basic_stringIcSt11char_traitsIcESaIcEED1Ev(ptr noundef nonnull align 8 dereferenceable(32) %sSuffix) #5
  br label %return

lpad14:                                           ; preds = %if.end11
  %19 = landingpad { ptr, i32 }
          cleanup
  %20 = extractvalue { ptr, i32 } %19, 0
  store ptr %20, ptr %exn.slot, align 8
  %21 = extractvalue { ptr, i32 } %19, 1
  store i32 %21, ptr %ehselector.slot, align 4
  call void @_ZNSt7__cxx1112basic_stringIcSt11char_traitsIcESaIcEED1Ev(ptr noundef nonnull align 8 dereferenceable(32) %sSuffix) #5
  br label %eh.resume

return:                                           ; preds = %invoke.cont15, %invoke.cont9, %if.then4, %if.then
  %22 = load i1, ptr %retval, align 1
  ret i1 %22

eh.resume:                                        ; preds = %lpad14, %ehcleanup
  %exn = load ptr, ptr %exn.slot, align 8
  %sel = load i32, ptr %ehselector.slot, align 4
  %lpad.val = insertvalue { ptr, i32 } poison, ptr %exn, 0
  %lpad.val19 = insertvalue { ptr, i32 } %lpad.val, i32 %sel, 1
  resume { ptr, i32 } %lpad.val19
}