; Function Attrs: mustprogress uwtable
define internal fastcc noundef zeroext i1 @_ZN6Assimp4OgreL8EndsWithERKNSt7__cxx1112basic_stringIcSt11char_traitsIcESaIcEEES8_b(ptr noundef nonnull align 8 dereferenceable(32) %s, ptr noundef nonnull align 8 dereferenceable(32) %suffix, i1 noundef zeroext %caseSensitive) unnamed_addr #2 personality ptr @__gxx_personality_v0 {
entry:
  %ref.tmp = alloca %"class.std::__cxx11::basic_string", align 8
  %ref.tmp7 = alloca %"class.std::__cxx11::basic_string", align 8
  %sSuffix = alloca %"class.std::__cxx11::basic_string", align 8
  %call = tail call noundef zeroext i1 @_ZNKSt7__cxx1112basic_stringIcSt11char_traitsIcESaIcEE5emptyEv(ptr noundef nonnull align 8 dereferenceable(32) %s) #19
  br i1 %call, label %return, label %lor.lhs.false

lor.lhs.false:                                    ; preds = %entry
  %call1 = tail call noundef zeroext i1 @_ZNKSt7__cxx1112basic_stringIcSt11char_traitsIcESaIcEE5emptyEv(ptr noundef nonnull align 8 dereferenceable(32) %suffix) #19
  br i1 %call1, label %return, label %if.else

if.else:                                          ; preds = %lor.lhs.false
  %call2 = tail call noundef i64 @_ZNKSt7__cxx1112basic_stringIcSt11char_traitsIcESaIcEE6lengthEv(ptr noundef nonnull align 8 dereferenceable(32) %s) #19
  %call3 = tail call noundef i64 @_ZNKSt7__cxx1112basic_stringIcSt11char_traitsIcESaIcEE6lengthEv(ptr noundef nonnull align 8 dereferenceable(32) %suffix) #19
  %cmp = icmp ult i64 %call2, %call3
  br i1 %cmp, label %return, label %if.end5

if.end5:                                          ; preds = %if.else
  br i1 %caseSensitive, label %if.end11, label %if.then6

if.then6:                                         ; preds = %if.end5
  call void @_Z10ai_tolowerRKNSt7__cxx1112basic_stringIcSt11char_traitsIcESaIcEEE(ptr nonnull sret(%"class.std::__cxx11::basic_string") align 8 %ref.tmp, ptr noundef nonnull align 8 dereferenceable(32) %s)
  invoke void @_Z10ai_tolowerRKNSt7__cxx1112basic_stringIcSt11char_traitsIcESaIcEEE(ptr nonnull sret(%"class.std::__cxx11::basic_string") align 8 %ref.tmp7, ptr noundef nonnull align 8 dereferenceable(32) %suffix)
          to label %invoke.cont unwind label %lpad

invoke.cont:                                      ; preds = %if.then6
  %call10 = invoke fastcc noundef zeroext i1 @_ZN6Assimp4OgreL8EndsWithERKNSt7__cxx1112basic_stringIcSt11char_traitsIcESaIcEEES8_b(ptr noundef nonnull align 8 dereferenceable(32) %ref.tmp, ptr noundef nonnull align 8 dereferenceable(32) %ref.tmp7, i1 noundef zeroext true)
          to label %invoke.cont9 unwind label %lpad8

invoke.cont9:                                     ; preds = %invoke.cont
  call void @_ZNSt7__cxx1112basic_stringIcSt11char_traitsIcESaIcEED1Ev(ptr noundef nonnull align 8 dereferenceable(32) %ref.tmp7) #19
  br label %return.sink.split

lpad:                                             ; preds = %if.then6
  %0 = landingpad { ptr, i32 }
          cleanup
  br label %ehcleanup

lpad8:                                            ; preds = %invoke.cont
  %1 = landingpad { ptr, i32 }
          cleanup
  call void @_ZNSt7__cxx1112basic_stringIcSt11char_traitsIcESaIcEED1Ev(ptr noundef nonnull align 8 dereferenceable(32) %ref.tmp7) #19
  br label %ehcleanup

ehcleanup:                                        ; preds = %lpad8, %lpad
  %.pn = phi { ptr, i32 } [ %1, %lpad8 ], [ %0, %lpad ]
  call void @_ZNSt7__cxx1112basic_stringIcSt11char_traitsIcESaIcEED1Ev(ptr noundef nonnull align 8 dereferenceable(32) %ref.tmp) #19
  resume { ptr, i32 } %.pn

if.end11:                                         ; preds = %if.end5
  %call12 = tail call noundef i64 @_ZNKSt7__cxx1112basic_stringIcSt11char_traitsIcESaIcEE6lengthEv(ptr noundef nonnull align 8 dereferenceable(32) %suffix) #19
  %call13 = tail call noundef i64 @_ZNKSt7__cxx1112basic_stringIcSt11char_traitsIcESaIcEE6lengthEv(ptr noundef nonnull align 8 dereferenceable(32) %s) #19
  %sub = sub i64 %call13, %call12
  call void @_ZNKSt7__cxx1112basic_stringIcSt11char_traitsIcESaIcEE6substrEmm(ptr nonnull sret(%"class.std::__cxx11::basic_string") align 8 %sSuffix, ptr noundef nonnull align 8 dereferenceable(32) %s, i64 noundef %sub, i64 noundef %call12)
  %call.i = call noundef i64 @_ZNKSt7__cxx1112basic_stringIcSt11char_traitsIcESaIcEE6lengthEv(ptr noundef nonnull align 8 dereferenceable(32) %suffix) #19
  %conv.i = trunc i64 %call.i to i32
  %call1.i = call noundef i64 @_ZNKSt7__cxx1112basic_stringIcSt11char_traitsIcESaIcEE6lengthEv(ptr noundef nonnull align 8 dereferenceable(32) %sSuffix) #19
  %conv2.i = trunc i64 %call1.i to i32
  %tobool.not.i = icmp eq i32 %conv.i, %conv2.i
  br i1 %tobool.not.i, label %cond.false.i, label %return.sink.split

cond.false.i:                                     ; preds = %if.end11
  %call3.i = call noundef ptr @_ZNKSt7__cxx1112basic_stringIcSt11char_traitsIcESaIcEE5c_strEv(ptr noundef nonnull align 8 dereferenceable(32) %sSuffix) #19
  %call4.i = call noundef ptr @_ZNKSt7__cxx1112basic_stringIcSt11char_traitsIcESaIcEE5c_strEv(ptr noundef nonnull align 8 dereferenceable(32) %suffix) #19
  br label %do.body.i.i

do.body.i.i:                                      ; preds = %do.body.i.i, %cond.false.i
  %s2.addr.0.i.i = phi ptr [ %call4.i, %cond.false.i ], [ %incdec.ptr2.i.i, %do.body.i.i ]
  %s1.addr.0.i.i = phi ptr [ %call3.i, %cond.false.i ], [ %incdec.ptr.i.i, %do.body.i.i ]
  %incdec.ptr.i.i = getelementptr inbounds i8, ptr %s1.addr.0.i.i, i64 1
  %2 = load i8, ptr %s1.addr.0.i.i, align 1
  %conv.i.i = zext i8 %2 to i32
  %call.i.i = call i32 @tolower(i32 noundef %conv.i.i) #23
  %incdec.ptr2.i.i = getelementptr inbounds i8, ptr %s2.addr.0.i.i, i64 1
  %3 = load i8, ptr %s2.addr.0.i.i, align 1
  %conv3.i.i = zext i8 %3 to i32
  %call4.i.i = call i32 @tolower(i32 noundef %conv3.i.i) #23
  %4 = and i32 %call.i.i, 255
  %tobool.i.i = icmp ne i32 %4, 0
  %cmp.i.i.unshifted = xor i32 %call.i.i, %call4.i.i
  %cmp.i.i.mask = and i32 %cmp.i.i.unshifted, 255
  %cmp.i.i = icmp eq i32 %cmp.i.i.mask, 0
  %5 = select i1 %tobool.i.i, i1 %cmp.i.i, i1 false
  br i1 %5, label %do.body.i.i, label %return.sink.split, !llvm.loop !35

return.sink.split:                                ; preds = %do.body.i.i, %if.end11, %invoke.cont9
  %sSuffix.sink = phi ptr [ %ref.tmp, %invoke.cont9 ], [ %sSuffix, %if.end11 ], [ %sSuffix, %do.body.i.i ]
  %retval.0.ph = phi i1 [ %call10, %invoke.cont9 ], [ false, %if.end11 ], [ %cmp.i.i, %do.body.i.i ]
  call void @_ZNSt7__cxx1112basic_stringIcSt11char_traitsIcESaIcEED1Ev(ptr noundef nonnull align 8 dereferenceable(32) %sSuffix.sink) #19
  br label %return

return:                                           ; preds = %return.sink.split, %if.else, %entry, %lor.lhs.false
  %retval.0 = phi i1 [ false, %lor.lhs.false ], [ false, %entry ], [ false, %if.else ], [ %retval.0.ph, %return.sink.split ]
  ret i1 %retval.0
}